ccopy_reg
_reconstructor
p1
(csoftedge.core
Scene
p2
c__builtin__
object
p3
NtRp4
(dp5
S'renderables'
p6
(lp7
g1
(csoftedge.core
Triangle
p8
g3
NtRp9
(dp10
S'color'
p11
g1
(csoftedge.color
Material
p12
g3
NtRp13
(dp14
S'specular_color'
p15
g1
(csoftedge.core
Tuple3
p16
c__builtin__
tuple
p17
(F0
F0
F0
ttRp18
sS'specular_intensity'
p19
F1
sS'diffuse_intensity'
p20
F1
sS'diffuse_color'
p21
g1
(g16
g17
(F0.80000000000000004
F0.80000000000000004
F0.80000000000000004
ttRp22
sS'specular_hardness'
p23
I50
sS'transparent_color'
p24
g18
sS'refractive_index'
p25
F1.6000000000000001
sbsS'points'
p26
(g1
(g16
g17
(F0
F0
F500
ttRp27
g1
(g16
g17
(F0
F500
F500
ttRp28
g1
(g16
g17
(F500
F500
F500
ttRp29
tp30
sS'plane'
p31
g1
(csoftedge.core
Plane
p32
g3
NtRp33
(dp34
S'd'
F-125000000
sS'normal'
p35
g1
(g16
g17
(F0
F0
F-250000
ttRp36
sbsbag1
(g8
g3
NtRp37
(dp38
g11
g13
sg26
(g29
g1
(g16
g17
(F500
F0
F500
ttRp39
g27
tp40
sg31
g1
(g32
g3
NtRp41
(dp42
S'd'
F-125000000
sg35
g1
(g16
g17
(F0
F-0
F-250000
ttRp43
sbsbag1
(g8
g3
NtRp44
(dp45
g11
g13
sg26
(g27
g39
g1
(g16
g17
(F500
F0
F0
ttRp46
tp47
sg31
g1
(g32
g3
NtRp48
(dp49
S'd'
F0
sg35
g1
(g16
g17
(F-0
F250000
F0
ttRp50
sbsbag1
(g8
g3
NtRp51
(dp52
g11
g13
sg26
(g46
g1
(g16
g17
(F0
F0
F0
ttRp53
g27
tp54
sg31
g1
(g32
g3
NtRp55
(dp56
S'd'
F0
sg35
g1
(g16
g17
(F0
F250000
F0
ttRp57
sbsbag1
(g8
g3
NtRp58
(dp59
g11
g1
(g12
g3
NtRp60
(dp61
g15
g1
(g16
g17
(F0.80000000000000004
F0.40000000000000002
F0.40000000000000002
ttRp62
sg19
F1
sg20
F1
sg21
g1
(g16
g17
(F0.80000000000000004
F0.40000000000000002
F0.40000000000000002
ttRp63
sg23
I50
sg24
g18
sg25
F1.6000000000000001
sbsg26
(g27
g53
g1
(g16
g17
(F0
F500
F0
ttRp64
tp65
sg31
g1
(g32
g3
NtRp66
(dp67
S'd'
F0
sg35
g1
(g16
g17
(F250000
F0
F0
ttRp68
sbsbag1
(g8
g3
NtRp69
(dp70
g11
g60
sg26
(g64
g28
g27
tp71
sg31
g1
(g32
g3
NtRp72
(dp73
S'd'
F0
sg35
g1
(g16
g17
(F250000
F0
F-0
ttRp74
sbsbag1
(g8
g3
NtRp75
(dp76
g11
g1
(g12
g3
NtRp77
(dp78
g15
g1
(g16
g17
(F0.40000000000000002
F0.80000000000000004
F0.40000000000000002
ttRp79
sg19
F1
sg20
F1
sg21
g1
(g16
g17
(F0.40000000000000002
F0.80000000000000004
F0.40000000000000002
ttRp80
sg23
I50
sg24
g18
sg25
F1.6000000000000001
sbsg26
(g39
g29
g1
(g16
g17
(F500
F500
F0
ttRp81
tp82
sg31
g1
(g32
g3
NtRp83
(dp84
S'd'
F-125000000
sg35
g1
(g16
g17
(F-250000
F0
F0
ttRp85
sbsbag1
(g8
g3
NtRp86
(dp87
g11
g77
sg26
(g81
g46
g39
tp88
sg31
g1
(g32
g3
NtRp89
(dp90
S'd'
F-125000000
sg35
g1
(g16
g17
(F-250000
F0
F0
ttRp91
sbsbag1
(csoftedge.core
Sphere
p92
g3
NtRp93
(dp94
g11
g1
(g12
g3
NtRp95
(dp96
g15
g1
(g16
g17
(F0.90000000000000002
F0.90000000000000002
F0.90000000000000002
ttRp97
sg19
F2
sg20
F0.20000000000000001
sg21
g97
sg23
I100
sg24
g18
sg25
F1.6000000000000001
sbsS'origin'
p98
g1
(g16
g17
(F150
F350
F350
ttRp99
sS'radius'
p100
F100
sbag1
(g92
g3
NtRp101
(dp102
g11
g1
(g12
g3
NtRp103
(dp104
g15
g18
sg19
F2
sg20
F0.20000000000000001
sg21
g97
sg23
I100
sg24
g97
sg25
F1.6000000000000001
sbsg98
g1
(g16
g17
(F350
F150
F150
ttRp105
sg100
F100
sbasS'lights'
p106
(lp107
g1
(csoftedge.core
Light
p108
g3
NtRp109
(dp110
g98
g1
(g16
g17
(F250
F499.89999999999998
F250
ttRp111
sg11
g1
(g16
g17
(F1
F1
F1
ttRp112
sbasg25
F1
sS'background'
p113
g18
sS'ambient'
p114
g1
(g16
g17
(F0.10000000000000001
F0.10000000000000001
F0.10000000000000001
ttRp115
sb.